; Function Attrs: mustprogress nounwind willreturn uwtable
define noundef range(i32 -12, 1) i32 @av_reallocp_array(ptr noundef captures(none) %0, i64 noundef %1, i64 noundef %2) local_unnamed_addr #4 {
  %.0.copyload = load ptr, ptr %0, align 1
  %4 = tail call { i64, i1 } @llvm.umul.with.overflow.i64(i64 %2, i64 %1)
  %5 = extractvalue { i64, i1 } %4, 1
  br i1 %5, label %.sink.split.i, label %6

6:                                                ; preds = %3
  %7 = extractvalue { i64, i1 } %4, 0
  %8 = load atomic i64, ptr @max_alloc_size monotonic, align 8
  %9 = icmp ugt i64 %7, %8
  br i1 %9, label %.sink.split.i, label %av_realloc.exit.i

av_realloc.exit.i:                                ; preds = %6
  %10 = tail call i64 @llvm.umax.i64(i64 %7, i64 1)
  %11 = tail call ptr @realloc(ptr noundef %.0.copyload, i64 noundef %10) #22
  %.not7.i = icmp eq ptr %11, null
  br i1 %.not7.i, label %.sink.split.i, label %av_realloc_f.exit

.sink.split.i:                                    ; preds = %av_realloc.exit.i, %6, %3
  tail call void @free(ptr noundef %.0.copyload) #21
  br label %av_realloc_f.exit

av_realloc_f.exit:                                ; preds = %av_realloc.exit.i, %.sink.split.i
  %.0.i = phi ptr [ %11, %av_realloc.exit.i ], [ null, %.sink.split.i ]
  store ptr %.0.i, ptr %0, align 1
  %12 = icmp eq ptr %.0.i, null
  %13 = icmp ne i64 %1, 0
  %or.cond = and i1 %13, %12
  %14 = icmp ne i64 %2, 0
  %or.cond3 = and i1 %14, %or.cond
  %. = select i1 %or.cond3, i32 -12, i32 0
  ret i32 %.
}